; Function Attrs: mustprogress uwtable
define void @_ZN17DisplayFilterEdit17updateClearButtonEv(ptr noundef nonnull align 8 dereferenceable(352) %0) local_unnamed_addr #2 align 2 personality ptr @__gxx_personality_v0 {
  %2 = alloca %class.QString, align 8
  tail call void @_ZN17DisplayFilterEdit25setDefaultPlaceholderTextEv(ptr noundef nonnull align 8 dereferenceable(352) %0)
  %3 = getelementptr inbounds i8, ptr %0, i64 248
  %4 = load ptr, ptr %3, align 8
  call void @_ZNK9QLineEdit4textEv(ptr dead_on_unwind nonnull writable sret(%class.QString) align 8 %2, ptr noundef nonnull align 8 dereferenceable(40) %0)
  %5 = getelementptr inbounds i8, ptr %2, i64 16
  %6 = load i64, ptr %5, align 8
  %7 = icmp ne i64 %6, 0
  %8 = load ptr, ptr %4, align 8
  %9 = getelementptr inbounds i8, ptr %8, i64 104
  %10 = load ptr, ptr %9, align 8
  invoke void %10(ptr noundef nonnull align 8 dereferenceable(40) %4, i1 noundef zeroext %7)
          to label %11 unwind label %16

11:                                               ; preds = %1
  %12 = load ptr, ptr %2, align 8
  %.not.i.i.i = icmp eq ptr %12, null
  br i1 %.not.i.i.i, label %_ZN7QStringD2Ev.exit, label %_ZN17QArrayDataPointerIDsE5derefEv.exit.i.i

_ZN17QArrayDataPointerIDsE5derefEv.exit.i.i:      ; preds = %11
  %13 = atomicrmw sub ptr %12, i32 1 seq_cst, align 4
  %.not.i.i = icmp eq i32 %13, 1
  br i1 %.not.i.i, label %14, label %_ZN7QStringD2Ev.exit

14:                                               ; preds = %_ZN17QArrayDataPointerIDsE5derefEv.exit.i.i
  %15 = load ptr, ptr %2, align 8
  call void @_ZN10QArrayData10deallocateEPS_xx(ptr noundef %15, i64 noundef 2, i64 noundef 8) #19
  br label %_ZN7QStringD2Ev.exit

_ZN7QStringD2Ev.exit:                             ; preds = %11, %_ZN17QArrayDataPointerIDsE5derefEv.exit.i.i, %14
  call void @_ZN17DisplayFilterEdit18alignActionButtonsEv(ptr noundef nonnull align 8 dereferenceable(352) %0)
  ret void

16:                                               ; preds = %1
  %17 = landingpad { ptr, i32 }
          cleanup
  %18 = load ptr, ptr %2, align 8
  %.not.i.i.i2 = icmp eq ptr %18, null
  br i1 %.not.i.i.i2, label %_ZN7QStringD2Ev.exit5, label %_ZN17QArrayDataPointerIDsE5derefEv.exit.i.i3

_ZN17QArrayDataPointerIDsE5derefEv.exit.i.i3:     ; preds = %16
  %19 = atomicrmw sub ptr %18, i32 1 seq_cst, align 4
  %.not.i.i4 = icmp eq i32 %19, 1
  br i1 %.not.i.i4, label %20, label %_ZN7QStringD2Ev.exit5

20:                                               ; preds = %_ZN17QArrayDataPointerIDsE5derefEv.exit.i.i3
  %21 = load ptr, ptr %2, align 8
  call void @_ZN10QArrayData10deallocateEPS_xx(ptr noundef %21, i64 noundef 2, i64 noundef 8) #19
  br label %_ZN7QStringD2Ev.exit5

_ZN7QStringD2Ev.exit5:                            ; preds = %16, %_ZN17QArrayDataPointerIDsE5derefEv.exit.i.i3, %20
  resume { ptr, i32 } %17
}